target datalayout = "e-m:e-p270:32:32-p271:32:32-p272:64:64-i64:64-i128:128-f80:128-n8:16:32:64-S128"
target triple = "x86_64-pc-linux-gnu"

%struct.MemTxAttrs = type { i32, i8, i8, i16 }

; Function Attrs: nounwind sspstrong uwtable
define internal zeroext i1 @fw_cfg_dma_mem_valid(ptr noundef %0, i64 noundef %1, i32 noundef %2, i1 noundef zeroext %3, i64 %4) #0 {
  %6 = alloca %struct.MemTxAttrs, align 4
  %7 = alloca ptr, align 8
  %8 = alloca i64, align 8
  %9 = alloca i32, align 4
  %10 = alloca i8, align 1
  store i64 %4, ptr %6, align 4
  store ptr %0, ptr %7, align 8
  store i64 %1, ptr %8, align 8
  store i32 %2, ptr %9, align 4
  %11 = zext i1 %3 to i8
  store i8 %11, ptr %10, align 1
  %12 = load i8, ptr %10, align 1, !range !4, !noundef !5
  %13 = trunc i8 %12 to i1
  br i1 %13, label %14, label %33

14:                                               ; preds = %5
  %15 = load i32, ptr %9, align 4
  %16 = icmp eq i32 %15, 4
  br i1 %16, label %17, label %23

17:                                               ; preds = %14
  %18 = load i64, ptr %8, align 8
  %19 = icmp eq i64 %18, 0
  br i1 %19, label %31, label %20

20:                                               ; preds = %17
  %21 = load i64, ptr %8, align 8
  %22 = icmp eq i64 %21, 4
  br i1 %22, label %31, label %23

23:                                               ; preds = %20, %14
  %24 = load i32, ptr %9, align 4
  %25 = icmp eq i32 %24, 8
  br i1 %25, label %26, label %29

26:                                               ; preds = %23
  %27 = load i64, ptr %8, align 8
  %28 = icmp eq i64 %27, 0
  br label %29

29:                                               ; preds = %26, %23
  %30 = phi i1 [ false, %23 ], [ %28, %26 ]
  br label %31

31:                                               ; preds = %29, %20, %17
  %32 = phi i1 [ true, %20 ], [ true, %17 ], [ %30, %29 ]
  br label %33

33:                                               ; preds = %31, %5
  %34 = phi i1 [ true, %5 ], [ %32, %31 ]
  ret i1 %34
}