; Function Attrs: mustprogress nofree norecurse nosync nounwind sspstrong willreturn memory(none) uwtable
define internal noundef zeroext i1 @fw_cfg_dma_mem_valid(ptr readnone captures(none) %0, i64 noundef %1, i32 noundef %2, i1 noundef zeroext %3, i64 %4) #13 {
  br i1 %3, label %6, label %13

6:                                                ; preds = %5
  %7 = icmp eq i32 %2, 4
  %8 = and i64 %1, -5
  %or.cond = icmp eq i64 %8, 0
  %or.cond7 = and i1 %7, %or.cond
  br i1 %or.cond7, label %13, label %9

9:                                                ; preds = %6
  %10 = icmp eq i32 %2, 8
  %11 = icmp eq i64 %1, 0
  %12 = and i1 %11, %10
  br label %13

13:                                               ; preds = %6, %9, %5
  %14 = phi i1 [ true, %5 ], [ %12, %9 ], [ true, %6 ]
  ret i1 %14
}